; Function Attrs: mustprogress nounwind uwtable
define internal fastcc void @"_ZZN4llvm19getShuffleReductionERNS_13IRBuilderBaseEPNS_5ValueEjNS_19TargetTransformInfo16ReductionShuffleENS_9RecurKindEENK3$_0clERNS_15SmallVectorImplIiEERS3_"(ptr nocapture noundef nonnull readonly align 8 dereferenceable(24) %0, ptr noundef nonnull align 8 dereferenceable(16) %1, ptr nocapture noundef nonnull align 8 dereferenceable(8) %2) unnamed_addr #0 align 2 {
  %4 = alloca %"class.llvm::Twine", align 8
  %5 = alloca %"class.llvm::Twine", align 8
  %6 = load ptr, ptr %0, align 8
  %7 = load ptr, ptr %2, align 8
  %8 = load ptr, ptr %1, align 8
  %9 = tail call noundef i64 @_ZNK4llvm15SmallVectorBaseIjE4sizeEv(ptr noundef nonnull align 8 dereferenceable(16) %1) #17
  %10 = getelementptr inbounds nuw i8, ptr %4, i64 32
  %11 = getelementptr inbounds nuw i8, ptr %4, i64 33
  store i8 1, ptr %11, align 1
  store ptr @.str.30, ptr %4, align 8
  store i8 3, ptr %10, align 8
  %12 = getelementptr inbounds nuw i8, ptr %7, i64 8
  %13 = load ptr, ptr %12, align 8
  %14 = tail call noundef ptr @_ZN4llvm11PoisonValue3getEPNS_4TypeE(ptr noundef %13) #17
  %15 = call noundef ptr @_ZN4llvm13IRBuilderBase19CreateShuffleVectorEPNS_5ValueES2_NS_8ArrayRefIiEERKNS_5TwineE(ptr noundef nonnull align 8 dereferenceable(128) %6, ptr noundef nonnull %7, ptr noundef %14, ptr %8, i64 %9, ptr noundef nonnull align 8 dereferenceable(34) %4)
  %16 = getelementptr inbounds nuw i8, ptr %0, i64 8
  %17 = load ptr, ptr %16, align 8
  %18 = load i32, ptr %17, align 4
  %.off = add i32 %18, -53
  %switch = icmp ult i32 %.off, 2
  %19 = load ptr, ptr %0, align 8
  br i1 %switch, label %25, label %20

20:                                               ; preds = %3
  %21 = load ptr, ptr %2, align 8
  %22 = getelementptr inbounds nuw i8, ptr %5, i64 32
  %23 = getelementptr inbounds nuw i8, ptr %5, i64 33
  store i8 1, ptr %23, align 1
  store ptr @.str.18, ptr %5, align 8
  store i8 3, ptr %22, align 8
  %24 = call noundef ptr @_ZN4llvm13IRBuilderBase11CreateBinOpENS_11Instruction9BinaryOpsEPNS_5ValueES4_RKNS_5TwineEPNS_6MDNodeE(ptr noundef nonnull align 8 dereferenceable(128) %19, i32 noundef %18, ptr noundef %21, ptr noundef %15, ptr noundef nonnull align 8 dereferenceable(34) %5, ptr noundef null)
  br label %31

25:                                               ; preds = %3
  %26 = getelementptr inbounds nuw i8, ptr %0, i64 16
  %27 = load ptr, ptr %26, align 8
  %28 = load i32, ptr %27, align 4
  %29 = load ptr, ptr %2, align 8
  %30 = call noundef ptr @_ZN4llvm14createMinMaxOpERNS_13IRBuilderBaseENS_9RecurKindEPNS_5ValueES4_(ptr noundef nonnull align 8 dereferenceable(128) %19, i32 noundef %28, ptr noundef %29, ptr noundef %15)
  br label %31

31:                                               ; preds = %25, %20
  %storemerge = phi ptr [ %30, %25 ], [ %24, %20 ]
  store ptr %storemerge, ptr %2, align 8
  ret void
}